target datalayout = "e-m:e-p270:32:32-p271:32:32-p272:64:64-i64:64-i128:128-f80:128-n8:16:32:64-S128"
target triple = "x86_64-pc-linux-gnu"

%struct._cmstransform_struct = type { i32, i32, ptr, ptr, ptr, ptr, ptr, %struct._cmsCACHE, ptr, ptr, ptr, ptr, i32, i32, %struct.cmsCIEXYZ, %struct.cmsCIEXYZ, ptr, i32, double, i32, ptr, ptr, ptr, ptr, ptr, i32, i32 }
%struct._cmsCACHE = type { [16 x i16], [16 x i16] }
%struct.cmsCIEXYZ = type { double, double, double }

; Function Attrs: nounwind uwtable
define internal i32 @PixelSize(i32 noundef %0) #0 {
  %2 = alloca i32, align 4
  %3 = alloca i32, align 4
  %4 = alloca i32, align 4
  store i32 %0, ptr %3, align 4
  %5 = load i32, ptr %3, align 4
  %6 = and i32 %5, 7
  store i32 %6, ptr %4, align 4
  %7 = load i32, ptr %4, align 4
  %8 = icmp eq i32 %7, 0
  br i1 %8, label %9, label %10

9:                                                ; preds = %1
  store i32 8, ptr %2, align 4
  br label %12

10:                                               ; preds = %1
  %11 = load i32, ptr %4, align 4
  store i32 %11, ptr %2, align 4
  br label %12

12:                                               ; preds = %10, %9
  %13 = load i32, ptr %2, align 4
  ret i32 %13
}

; Function Attrs: nounwind uwtable
define internal i32 @IsInkSpace(i32 noundef %0) #0 {
  %2 = alloca i32, align 4
  %3 = alloca i32, align 4
  store i32 %0, ptr %3, align 4
  %4 = load i32, ptr %3, align 4
  %5 = lshr i32 %4, 16
  %6 = and i32 %5, 31
  switch i32 %6, label %8 [
    i32 5, label %7
    i32 6, label %7
    i32 19, label %7
    i32 20, label %7
    i32 21, label %7
    i32 22, label %7
    i32 23, label %7
    i32 24, label %7
    i32 25, label %7
    i32 26, label %7
    i32 27, label %7
    i32 28, label %7
    i32 29, label %7
  ]

7:                                                ; preds = %1, %1, %1, %1, %1, %1, %1, %1, %1, %1, %1, %1, %1
  store i32 1, ptr %2, align 4
  br label %9

8:                                                ; preds = %1
  store i32 0, ptr %2, align 4
  br label %9

9:                                                ; preds = %8, %7
  %10 = load i32, ptr %2, align 4
  ret i32 %10
}

; Function Attrs: nounwind uwtable
define internal ptr @PackFloatFrom16(ptr noundef %0, ptr noundef %1, ptr noundef %2, i32 noundef %3) #0 {
  %5 = alloca ptr, align 8
  %6 = alloca ptr, align 8
  %7 = alloca ptr, align 8
  %8 = alloca ptr, align 8
  %9 = alloca i32, align 4
  %10 = alloca i32, align 4
  %11 = alloca i32, align 4
  %12 = alloca i32, align 4
  %13 = alloca i32, align 4
  %14 = alloca i32, align 4
  %15 = alloca i32, align 4
  %16 = alloca i32, align 4
  %17 = alloca double, align 8
  %18 = alloca double, align 8
  %19 = alloca ptr, align 8
  %20 = alloca i32, align 4
  %21 = alloca i32, align 4
  %22 = alloca i32, align 4
  store ptr %0, ptr %6, align 8
  store ptr %1, ptr %7, align 8
  store ptr %2, ptr %8, align 8
  store i32 %3, ptr %9, align 4
  %23 = load ptr, ptr %6, align 8
  %24 = getelementptr inbounds %struct._cmstransform_struct, ptr %23, i32 0, i32 1
  %25 = load i32, ptr %24, align 4
  %26 = lshr i32 %25, 3
  %27 = and i32 %26, 15
  store i32 %27, ptr %10, align 4
  %28 = load ptr, ptr %6, align 8
  %29 = getelementptr inbounds %struct._cmstransform_struct, ptr %28, i32 0, i32 1
  %30 = load i32, ptr %29, align 4
  %31 = lshr i32 %30, 10
  %32 = and i32 %31, 1
  store i32 %32, ptr %11, align 4
  %33 = load ptr, ptr %6, align 8
  %34 = getelementptr inbounds %struct._cmstransform_struct, ptr %33, i32 0, i32 1
  %35 = load i32, ptr %34, align 4
  %36 = lshr i32 %35, 13
  %37 = and i32 %36, 1
  store i32 %37, ptr %12, align 4
  %38 = load ptr, ptr %6, align 8
  %39 = getelementptr inbounds %struct._cmstransform_struct, ptr %38, i32 0, i32 1
  %40 = load i32, ptr %39, align 4
  %41 = lshr i32 %40, 7
  %42 = and i32 %41, 7
  store i32 %42, ptr %13, align 4
  %43 = load ptr, ptr %6, align 8
  %44 = getelementptr inbounds %struct._cmstransform_struct, ptr %43, i32 0, i32 1
  %45 = load i32, ptr %44, align 4
  %46 = lshr i32 %45, 14
  %47 = and i32 %46, 1
  store i32 %47, ptr %14, align 4
  %48 = load ptr, ptr %6, align 8
  %49 = getelementptr inbounds %struct._cmstransform_struct, ptr %48, i32 0, i32 1
  %50 = load i32, ptr %49, align 4
  %51 = lshr i32 %50, 12
  %52 = and i32 %51, 1
  store i32 %52, ptr %15, align 4
  %53 = load i32, ptr %11, align 4
  %54 = load i32, ptr %14, align 4
  %55 = xor i32 %53, %54
  store i32 %55, ptr %16, align 4
  %56 = load ptr, ptr %6, align 8
  %57 = getelementptr inbounds %struct._cmstransform_struct, ptr %56, i32 0, i32 1
  %58 = load i32, ptr %57, align 4
  %59 = call i32 @IsInkSpace(i32 noundef %58)
  %60 = icmp ne i32 %59, 0
  %61 = select i1 %60, double 6.553500e+02, double 6.553500e+04
  store double %61, ptr %17, align 8
  store double 0.000000e+00, ptr %18, align 8
  %62 = load ptr, ptr %8, align 8
  store ptr %62, ptr %19, align 8
  store i32 0, ptr %21, align 4
  %63 = load ptr, ptr %6, align 8
  %64 = getelementptr inbounds %struct._cmstransform_struct, ptr %63, i32 0, i32 1
  %65 = load i32, ptr %64, align 4
  %66 = call i32 @PixelSize(i32 noundef %65)
  %67 = load i32, ptr %9, align 4
  %68 = udiv i32 %67, %66
  store i32 %68, ptr %9, align 4
  %69 = load i32, ptr %16, align 4
  %70 = icmp ne i32 %69, 0
  br i1 %70, label %71, label %73

71:                                               ; preds = %4
  %72 = load i32, ptr %13, align 4
  store i32 %72, ptr %21, align 4
  br label %73

73:                                               ; preds = %71, %4
  store i32 0, ptr %20, align 4
  br label %74

74:                                               ; preds = %128, %73
  %75 = load i32, ptr %20, align 4
  %76 = load i32, ptr %10, align 4
  %77 = icmp ult i32 %75, %76
  br i1 %77, label %78, label %131

78:                                               ; preds = %74
  %79 = load i32, ptr %11, align 4
  %80 = icmp ne i32 %79, 0
  br i1 %80, label %81, label %86

81:                                               ; preds = %78
  %82 = load i32, ptr %10, align 4
  %83 = load i32, ptr %20, align 4
  %84 = sub i32 %82, %83
  %85 = sub i32 %84, 1
  br label %88

86:                                               ; preds = %78
  %87 = load i32, ptr %20, align 4
  br label %88

88:                                               ; preds = %86, %81
  %89 = phi i32 [ %85, %81 ], [ %87, %86 ]
  store i32 %89, ptr %22, align 4
  %90 = load ptr, ptr %7, align 8
  %91 = load i32, ptr %22, align 4
  %92 = zext i32 %91 to i64
  %93 = getelementptr inbounds i16, ptr %90, i64 %92
  %94 = load i16, ptr %93, align 2
  %95 = uitofp i16 %94 to double
  %96 = load double, ptr %17, align 8
  %97 = fdiv double %95, %96
  store double %97, ptr %18, align 8
  %98 = load i32, ptr %12, align 4
  %99 = icmp ne i32 %98, 0
  br i1 %99, label %100, label %104

100:                                              ; preds = %88
  %101 = load double, ptr %17, align 8
  %102 = load double, ptr %18, align 8
  %103 = fsub double %101, %102
  store double %103, ptr %18, align 8
  br label %104

104:                                              ; preds = %100, %88
  %105 = load i32, ptr %15, align 4
  %106 = icmp ne i32 %105, 0
  br i1 %106, label %107, label %118

107:                                              ; preds = %104
  %108 = load double, ptr %18, align 8
  %109 = fptrunc double %108 to float
  %110 = load ptr, ptr %8, align 8
  %111 = load i32, ptr %20, align 4
  %112 = load i32, ptr %21, align 4
  %113 = add i32 %111, %112
  %114 = load i32, ptr %9, align 4
  %115 = mul i32 %113, %114
  %116 = zext i32 %115 to i64
  %117 = getelementptr inbounds float, ptr %110, i64 %116
  store float %109, ptr %117, align 4
  br label %127

118:                                              ; preds = %104
  %119 = load double, ptr %18, align 8
  %120 = fptrunc double %119 to float
  %121 = load ptr, ptr %8, align 8
  %122 = load i32, ptr %20, align 4
  %123 = load i32, ptr %21, align 4
  %124 = add i32 %122, %123
  %125 = zext i32 %124 to i64
  %126 = getelementptr inbounds float, ptr %121, i64 %125
  store float %120, ptr %126, align 4
  br label %127

127:                                              ; preds = %118, %107
  br label %128

128:                                              ; preds = %127
  %129 = load i32, ptr %20, align 4
  %130 = add i32 %129, 1
  store i32 %130, ptr %20, align 4
  br label %74, !llvm.loop !26

131:                                              ; preds = %74
  %132 = load i32, ptr %13, align 4
  %133 = icmp eq i32 %132, 0
  br i1 %133, label %134, label %148

134:                                              ; preds = %131
  %135 = load i32, ptr %14, align 4
  %136 = icmp ne i32 %135, 0
  br i1 %136, label %137, label %148

137:                                              ; preds = %134
  %138 = load ptr, ptr %19, align 8
  %139 = getelementptr inbounds float, ptr %138, i64 1
  %140 = load ptr, ptr %19, align 8
  %141 = load i32, ptr %10, align 4
  %142 = sub i32 %141, 1
  %143 = zext i32 %142 to i64
  %144 = mul i64 %143, 4
  call void @llvm.memmove.p0.p0.i64(ptr align 4 %139, ptr align 4 %140, i64 %144, i1 false)
  %145 = load double, ptr %18, align 8
  %146 = fptrunc double %145 to float
  %147 = load ptr, ptr %19, align 8
  store float %146, ptr %147, align 4
  br label %148

148:                                              ; preds = %137, %134, %131
  %149 = load ptr, ptr %6, align 8
  %150 = getelementptr inbounds %struct._cmstransform_struct, ptr %149, i32 0, i32 1
  %151 = load i32, ptr %150, align 4
  %152 = lshr i32 %151, 12
  %153 = and i32 %152, 1
  %154 = icmp ne i32 %153, 0
  br i1 %154, label %155, label %158

155:                                              ; preds = %148
  %156 = load ptr, ptr %8, align 8
  %157 = getelementptr inbounds i8, ptr %156, i64 4
  store ptr %157, ptr %5, align 8
  br label %166

158:                                              ; preds = %148
  %159 = load ptr, ptr %8, align 8
  %160 = load i32, ptr %10, align 4
  %161 = load i32, ptr %13, align 4
  %162 = add i32 %160, %161
  %163 = zext i32 %162 to i64
  %164 = mul i64 %163, 4
  %165 = getelementptr inbounds i8, ptr %159, i64 %164
  store ptr %165, ptr %5, align 8
  br label %166

166:                                              ; preds = %158, %155
  %167 = load ptr, ptr %5, align 8
  ret ptr %167
}