; Function Attrs: nofree norecurse nosync nounwind memory(argmem: readwrite) uwtable
define internal ptr @PackFloatFrom16(ptr nocapture noundef readonly %0, ptr nocapture noundef readonly %1, ptr noundef %2, i32 noundef %3) #4 {
  %5 = getelementptr inbounds i8, ptr %0, i64 4
  %6 = load i32, ptr %5, align 4
  %.fr = freeze i32 %6
  %7 = lshr i32 %.fr, 3
  %8 = and i32 %7, 15
  %9 = lshr i32 %.fr, 10
  %10 = and i32 %9, 1
  %11 = lshr i32 %.fr, 7
  %12 = and i32 %11, 7
  %13 = lshr i32 %.fr, 14
  %14 = and i32 %13, 1
  %15 = lshr i32 %.fr, 16
  %16 = and i32 %15, 31
  %switch.tableidx = add nsw i32 %16, -5
  %17 = icmp ult i32 %switch.tableidx, 25
  br i1 %17, label %switch.lookup, label %IsInkSpace.exit

switch.lookup:                                    ; preds = %4
  %18 = zext nneg i32 %switch.tableidx to i64
  %switch.gep = getelementptr inbounds [25 x double], ptr @switch.table.PackFloatFrom16, i64 0, i64 %18
  %switch.load = load double, ptr %switch.gep, align 8
  br label %IsInkSpace.exit

IsInkSpace.exit:                                  ; preds = %4, %switch.lookup
  %19 = phi double [ %switch.load, %switch.lookup ], [ 6.553500e+04, %4 ]
  %20 = and i32 %.fr, 7
  %21 = icmp eq i32 %20, 0
  %..i = select i1 %21, i32 8, i32 %20
  %22 = udiv i32 %3, %..i
  %.not55 = icmp eq i32 %10, %14
  %spec.select = select i1 %.not55, i32 0, i32 %12
  %.not = icmp eq i32 %8, 0
  br i1 %.not, label %._crit_edge, label %.lr.ph

.lr.ph:                                           ; preds = %IsInkSpace.exit
  %.not57 = icmp eq i32 %10, 0
  %23 = and i32 %.fr, 8192
  %.not58 = icmp eq i32 %23, 0
  %24 = and i32 %.fr, 4096
  %.not59 = icmp eq i32 %24, 0
  br i1 %.not59, label %.lr.ph.split.us, label %.lr.ph.split

.lr.ph.split.us:                                  ; preds = %.lr.ph
  %25 = zext nneg i32 %spec.select to i64
  %wide.trip.count131 = zext nneg i32 %8 to i64
  %invariant.gep151 = getelementptr inbounds float, ptr %2, i64 %25
  br i1 %.not57, label %.lr.ph.split.us.split.us, label %.lr.ph.split.us.split

.lr.ph.split.us.split.us:                         ; preds = %.lr.ph.split.us
  br i1 %.not58, label %.lr.ph.split.us.split.us.split.us, label %.lr.ph.split.us.split.us.split

.lr.ph.split.us.split.us.split.us:                ; preds = %.lr.ph.split.us.split.us, %.lr.ph.split.us.split.us.split.us
  %indvars.iv128 = phi i64 [ %indvars.iv.next129, %.lr.ph.split.us.split.us.split.us ], [ 0, %.lr.ph.split.us.split.us ]
  %26 = getelementptr inbounds i16, ptr %1, i64 %indvars.iv128
  %27 = load i16, ptr %26, align 2
  %28 = uitofp i16 %27 to double
  %29 = fdiv double %28, %19
  %30 = fptrunc double %29 to float
  %gep152 = getelementptr inbounds float, ptr %invariant.gep151, i64 %indvars.iv128
  store float %30, ptr %gep152, align 4
  %indvars.iv.next129 = add nuw nsw i64 %indvars.iv128, 1
  %exitcond132.not = icmp eq i64 %indvars.iv.next129, %wide.trip.count131
  br i1 %exitcond132.not, label %._crit_edge, label %.lr.ph.split.us.split.us.split.us, !llvm.loop !26

.lr.ph.split.us.split.us.split:                   ; preds = %.lr.ph.split.us.split.us, %.lr.ph.split.us.split.us.split
  %indvars.iv123 = phi i64 [ %indvars.iv.next124, %.lr.ph.split.us.split.us.split ], [ 0, %.lr.ph.split.us.split.us ]
  %31 = getelementptr inbounds i16, ptr %1, i64 %indvars.iv123
  %32 = load i16, ptr %31, align 2
  %33 = uitofp i16 %32 to double
  %34 = fdiv double %33, %19
  %35 = fsub double %19, %34
  %36 = fptrunc double %35 to float
  %gep150 = getelementptr inbounds float, ptr %invariant.gep151, i64 %indvars.iv123
  store float %36, ptr %gep150, align 4
  %indvars.iv.next124 = add nuw nsw i64 %indvars.iv123, 1
  %exitcond127.not = icmp eq i64 %indvars.iv.next124, %wide.trip.count131
  br i1 %exitcond127.not, label %._crit_edge, label %.lr.ph.split.us.split.us.split, !llvm.loop !26

.lr.ph.split.us.split:                            ; preds = %.lr.ph.split.us
  br i1 %.not58, label %.lr.ph.split.us.split.split.us, label %.lr.ph.split.us.split.split

.lr.ph.split.us.split.split.us:                   ; preds = %.lr.ph.split.us.split, %.lr.ph.split.us.split.split.us
  %indvars.iv118 = phi i64 [ %indvars.iv.next119, %.lr.ph.split.us.split.split.us ], [ 0, %.lr.ph.split.us.split ]
  %37 = trunc nuw nsw i64 %indvars.iv118 to i32
  %38 = xor i32 %37, -1
  %39 = add nsw i32 %8, %38
  %40 = zext i32 %39 to i64
  %41 = getelementptr inbounds i16, ptr %1, i64 %40
  %42 = load i16, ptr %41, align 2
  %43 = uitofp i16 %42 to double
  %44 = fdiv double %43, %19
  %45 = fptrunc double %44 to float
  %gep148 = getelementptr inbounds float, ptr %invariant.gep151, i64 %indvars.iv118
  store float %45, ptr %gep148, align 4
  %indvars.iv.next119 = add nuw nsw i64 %indvars.iv118, 1
  %exitcond122.not = icmp eq i64 %indvars.iv.next119, %wide.trip.count131
  br i1 %exitcond122.not, label %._crit_edge, label %.lr.ph.split.us.split.split.us, !llvm.loop !26

.lr.ph.split.us.split.split:                      ; preds = %.lr.ph.split.us.split, %.lr.ph.split.us.split.split
  %indvars.iv113 = phi i64 [ %indvars.iv.next114, %.lr.ph.split.us.split.split ], [ 0, %.lr.ph.split.us.split ]
  %46 = trunc nuw nsw i64 %indvars.iv113 to i32
  %47 = xor i32 %46, -1
  %48 = add nsw i32 %8, %47
  %49 = zext i32 %48 to i64
  %50 = getelementptr inbounds i16, ptr %1, i64 %49
  %51 = load i16, ptr %50, align 2
  %52 = uitofp i16 %51 to double
  %53 = fdiv double %52, %19
  %54 = fsub double %19, %53
  %55 = fptrunc double %54 to float
  %gep = getelementptr inbounds float, ptr %invariant.gep151, i64 %indvars.iv113
  store float %55, ptr %gep, align 4
  %indvars.iv.next114 = add nuw nsw i64 %indvars.iv113, 1
  %exitcond117.not = icmp eq i64 %indvars.iv.next114, %wide.trip.count131
  br i1 %exitcond117.not, label %._crit_edge, label %.lr.ph.split.us.split.split, !llvm.loop !26

.lr.ph.split:                                     ; preds = %.lr.ph
  %wide.trip.count111 = zext nneg i32 %8 to i64
  br i1 %.not57, label %.lr.ph.split.split.us, label %.lr.ph.split.split

.lr.ph.split.split.us:                            ; preds = %.lr.ph.split
  br i1 %.not58, label %.lr.ph.split.split.us.split.us, label %.lr.ph.split.split.us.split

.lr.ph.split.split.us.split.us:                   ; preds = %.lr.ph.split.split.us, %.lr.ph.split.split.us.split.us
  %indvars.iv108 = phi i64 [ %indvars.iv.next109, %.lr.ph.split.split.us.split.us ], [ 0, %.lr.ph.split.split.us ]
  %56 = getelementptr inbounds i16, ptr %1, i64 %indvars.iv108
  %57 = load i16, ptr %56, align 2
  %58 = uitofp i16 %57 to double
  %59 = fdiv double %58, %19
  %60 = fptrunc double %59 to float
  %61 = trunc i64 %indvars.iv108 to i32
  %62 = add i32 %spec.select, %61
  %63 = mul i32 %62, %22
  %64 = zext i32 %63 to i64
  %65 = getelementptr inbounds float, ptr %2, i64 %64
  store float %60, ptr %65, align 4
  %indvars.iv.next109 = add nuw nsw i64 %indvars.iv108, 1
  %exitcond112.not = icmp eq i64 %indvars.iv.next109, %wide.trip.count111
  br i1 %exitcond112.not, label %._crit_edge, label %.lr.ph.split.split.us.split.us, !llvm.loop !26

.lr.ph.split.split.us.split:                      ; preds = %.lr.ph.split.split.us, %.lr.ph.split.split.us.split
  %indvars.iv103 = phi i64 [ %indvars.iv.next104, %.lr.ph.split.split.us.split ], [ 0, %.lr.ph.split.split.us ]
  %66 = getelementptr inbounds i16, ptr %1, i64 %indvars.iv103
  %67 = load i16, ptr %66, align 2
  %68 = uitofp i16 %67 to double
  %69 = fdiv double %68, %19
  %70 = fsub double %19, %69
  %71 = fptrunc double %70 to float
  %72 = trunc i64 %indvars.iv103 to i32
  %73 = add i32 %spec.select, %72
  %74 = mul i32 %73, %22
  %75 = zext i32 %74 to i64
  %76 = getelementptr inbounds float, ptr %2, i64 %75
  store float %71, ptr %76, align 4
  %indvars.iv.next104 = add nuw nsw i64 %indvars.iv103, 1
  %exitcond107.not = icmp eq i64 %indvars.iv.next104, %wide.trip.count111
  br i1 %exitcond107.not, label %._crit_edge, label %.lr.ph.split.split.us.split, !llvm.loop !26

.lr.ph.split.split:                               ; preds = %.lr.ph.split
  br i1 %.not58, label %.lr.ph.split.split.split.us, label %.lr.ph.split.split.split

.lr.ph.split.split.split.us:                      ; preds = %.lr.ph.split.split, %.lr.ph.split.split.split.us
  %indvars.iv98 = phi i64 [ %indvars.iv.next99, %.lr.ph.split.split.split.us ], [ 0, %.lr.ph.split.split ]
  %77 = trunc nuw nsw i64 %indvars.iv98 to i32
  %78 = xor i32 %77, -1
  %79 = add nsw i32 %8, %78
  %80 = zext i32 %79 to i64
  %81 = getelementptr inbounds i16, ptr %1, i64 %80
  %82 = load i16, ptr %81, align 2
  %83 = uitofp i16 %82 to double
  %84 = fdiv double %83, %19
  %85 = fptrunc double %84 to float
  %86 = trunc i64 %indvars.iv98 to i32
  %87 = add i32 %spec.select, %86
  %88 = mul i32 %87, %22
  %89 = zext i32 %88 to i64
  %90 = getelementptr inbounds float, ptr %2, i64 %89
  store float %85, ptr %90, align 4
  %indvars.iv.next99 = add nuw nsw i64 %indvars.iv98, 1
  %exitcond102.not = icmp eq i64 %indvars.iv.next99, %wide.trip.count111
  br i1 %exitcond102.not, label %._crit_edge, label %.lr.ph.split.split.split.us, !llvm.loop !26

.lr.ph.split.split.split:                         ; preds = %.lr.ph.split.split, %.lr.ph.split.split.split
  %indvars.iv = phi i64 [ %indvars.iv.next, %.lr.ph.split.split.split ], [ 0, %.lr.ph.split.split ]
  %91 = trunc nuw nsw i64 %indvars.iv to i32
  %92 = xor i32 %91, -1
  %93 = add nsw i32 %8, %92
  %94 = zext i32 %93 to i64
  %95 = getelementptr inbounds i16, ptr %1, i64 %94
  %96 = load i16, ptr %95, align 2
  %97 = uitofp i16 %96 to double
  %98 = fdiv double %97, %19
  %99 = fsub double %19, %98
  %100 = fptrunc double %99 to float
  %101 = trunc i64 %indvars.iv to i32
  %102 = add i32 %spec.select, %101
  %103 = mul i32 %102, %22
  %104 = zext i32 %103 to i64
  %105 = getelementptr inbounds float, ptr %2, i64 %104
  store float %100, ptr %105, align 4
  %indvars.iv.next = add nuw nsw i64 %indvars.iv, 1
  %exitcond.not = icmp eq i64 %indvars.iv.next, %wide.trip.count111
  br i1 %exitcond.not, label %._crit_edge, label %.lr.ph.split.split.split, !llvm.loop !26

._crit_edge:                                      ; preds = %.lr.ph.split.split.split, %.lr.ph.split.split.split.us, %.lr.ph.split.split.us.split, %.lr.ph.split.split.us.split.us, %.lr.ph.split.us.split.split, %.lr.ph.split.us.split.split.us, %.lr.ph.split.us.split.us.split, %.lr.ph.split.us.split.us.split.us, %IsInkSpace.exit
  %.052.lcssa = phi double [ 0.000000e+00, %IsInkSpace.exit ], [ %29, %.lr.ph.split.us.split.us.split.us ], [ %35, %.lr.ph.split.us.split.us.split ], [ %44, %.lr.ph.split.us.split.split.us ], [ %54, %.lr.ph.split.us.split.split ], [ %59, %.lr.ph.split.split.us.split.us ], [ %70, %.lr.ph.split.split.us.split ], [ %84, %.lr.ph.split.split.split.us ], [ %99, %.lr.ph.split.split.split ]
  %106 = icmp eq i32 %12, 0
  %107 = icmp ne i32 %14, 0
  %or.cond = and i1 %106, %107
  br i1 %or.cond, label %108, label %114

108:                                              ; preds = %._crit_edge
  %109 = getelementptr inbounds i8, ptr %2, i64 4
  %110 = add nsw i32 %8, -1
  %111 = zext i32 %110 to i64
  %112 = shl nuw nsw i64 %111, 2
  tail call void @llvm.memmove.p0.p0.i64(ptr nonnull align 4 %109, ptr align 4 %2, i64 %112, i1 false)
  %113 = fptrunc double %.052.lcssa to float
  store float %113, ptr %2, align 4
  br label %114

114:                                              ; preds = %108, %._crit_edge
  %115 = load i32, ptr %5, align 4
  %116 = and i32 %115, 4096
  %.not56 = icmp eq i32 %116, 0
  %117 = add nuw nsw i32 %8, %12
  %118 = shl nuw nsw i32 %117, 2
  %narrow = select i1 %.not56, i32 %118, i32 4
  %.0.v = zext nneg i32 %narrow to i64
  %.0 = getelementptr inbounds i8, ptr %2, i64 %.0.v
  ret ptr %.0
}